target datalayout = "e-m:e-p270:32:32-p271:32:32-p272:64:64-i64:64-i128:128-f80:128-n8:16:32:64-S128"
target triple = "x86_64-pc-linux-gnu"

%"class.icu_77::RegexMatcher" = type { %"class.icu_77::UObject", ptr, ptr, ptr, ptr, ptr, i64, i32, i64, i64, i64, i64, i64, i64, i64, i64, i8, i8, i8, i64, i64, i64, i64, i8, i8, ptr, ptr, ptr, [8 x i64], i32, i32, i32, i32, ptr, ptr, ptr, ptr, i8, i8, i32, ptr, ptr }
%"class.icu_77::UObject" = type { ptr }
%struct.UParseError = type { i32, i32, [16 x i16], [16 x i16] }

@_ZTVN6icu_777UObjectE = available_externally unnamed_addr constant { [5 x ptr] } { [5 x ptr] [ptr null, ptr @_ZTIN6icu_777UObjectE, ptr @_ZN6icu_777UObjectD1Ev, ptr @_ZN6icu_777UObjectD0Ev, ptr @_ZNK6icu_777UObject17getDynamicClassIDEv] }, align 8

; Function Attrs: inlinehint mustprogress nounwind uwtable
define internal noundef signext i8 @_ZL9U_FAILURE10UErrorCode(i32 noundef %0) #2 {
  %2 = alloca i32, align 4
  store i32 %0, ptr %2, align 4, !tbaa !15
  %3 = load i32, ptr %2, align 4, !tbaa !15
  %4 = icmp sgt i32 %3, 0
  %5 = zext i1 %4 to i8
  ret i8 %5
}

; Function Attrs: mustprogress nounwind uwtable
define void @_ZN6icu_7712RegexMatcher4initER10UErrorCode(ptr noundef nonnull align 8 dereferenceable(336) %0, ptr noundef nonnull align 4 dereferenceable(4) %1) #0 align 2 {
  %3 = alloca ptr, align 8
  %4 = alloca ptr, align 8
  store ptr %0, ptr %3, align 8, !tbaa !23
  store ptr %1, ptr %4, align 8, !tbaa !22
  %5 = load ptr, ptr %3, align 8
  %6 = getelementptr inbounds nuw %"class.icu_77::RegexMatcher", ptr %5, i32 0, i32 1
  store ptr null, ptr %6, align 8, !tbaa !38
  %7 = getelementptr inbounds nuw %"class.icu_77::RegexMatcher", ptr %5, i32 0, i32 2
  store ptr null, ptr %7, align 8, !tbaa !54
  %8 = getelementptr inbounds nuw %"class.icu_77::RegexMatcher", ptr %5, i32 0, i32 7
  store i32 0, ptr %8, align 8, !tbaa !55
  %9 = getelementptr inbounds nuw %"class.icu_77::RegexMatcher", ptr %5, i32 0, i32 8
  store i64 0, ptr %9, align 8, !tbaa !56
  %10 = getelementptr inbounds nuw %"class.icu_77::RegexMatcher", ptr %5, i32 0, i32 9
  store i64 0, ptr %10, align 8, !tbaa !57
  %11 = getelementptr inbounds nuw %"class.icu_77::RegexMatcher", ptr %5, i32 0, i32 10
  store i64 0, ptr %11, align 8, !tbaa !58
  %12 = getelementptr inbounds nuw %"class.icu_77::RegexMatcher", ptr %5, i32 0, i32 11
  store i64 0, ptr %12, align 8, !tbaa !59
  %13 = getelementptr inbounds nuw %"class.icu_77::RegexMatcher", ptr %5, i32 0, i32 12
  store i64 0, ptr %13, align 8, !tbaa !60
  %14 = getelementptr inbounds nuw %"class.icu_77::RegexMatcher", ptr %5, i32 0, i32 13
  store i64 0, ptr %14, align 8, !tbaa !61
  %15 = getelementptr inbounds nuw %"class.icu_77::RegexMatcher", ptr %5, i32 0, i32 14
  store i64 0, ptr %15, align 8, !tbaa !62
  %16 = getelementptr inbounds nuw %"class.icu_77::RegexMatcher", ptr %5, i32 0, i32 15
  store i64 0, ptr %16, align 8, !tbaa !63
  %17 = getelementptr inbounds nuw %"class.icu_77::RegexMatcher", ptr %5, i32 0, i32 16
  store i8 0, ptr %17, align 8, !tbaa !64
  %18 = getelementptr inbounds nuw %"class.icu_77::RegexMatcher", ptr %5, i32 0, i32 17
  store i8 1, ptr %18, align 1, !tbaa !65
  %19 = getelementptr inbounds nuw %"class.icu_77::RegexMatcher", ptr %5, i32 0, i32 18
  store i8 0, ptr %19, align 2, !tbaa !66
  %20 = getelementptr inbounds nuw %"class.icu_77::RegexMatcher", ptr %5, i32 0, i32 19
  store i64 0, ptr %20, align 8, !tbaa !67
  %21 = getelementptr inbounds nuw %"class.icu_77::RegexMatcher", ptr %5, i32 0, i32 20
  store i64 0, ptr %21, align 8, !tbaa !68
  %22 = getelementptr inbounds nuw %"class.icu_77::RegexMatcher", ptr %5, i32 0, i32 21
  store i64 -1, ptr %22, align 8, !tbaa !69
  %23 = getelementptr inbounds nuw %"class.icu_77::RegexMatcher", ptr %5, i32 0, i32 22
  store i64 0, ptr %23, align 8, !tbaa !70
  %24 = getelementptr inbounds nuw %"class.icu_77::RegexMatcher", ptr %5, i32 0, i32 23
  store i8 0, ptr %24, align 8, !tbaa !71
  %25 = getelementptr inbounds nuw %"class.icu_77::RegexMatcher", ptr %5, i32 0, i32 24
  store i8 0, ptr %25, align 1, !tbaa !72
  %26 = getelementptr inbounds nuw %"class.icu_77::RegexMatcher", ptr %5, i32 0, i32 25
  store ptr null, ptr %26, align 8, !tbaa !73
  %27 = getelementptr inbounds nuw %"class.icu_77::RegexMatcher", ptr %5, i32 0, i32 26
  store ptr null, ptr %27, align 8, !tbaa !74
  %28 = getelementptr inbounds nuw %"class.icu_77::RegexMatcher", ptr %5, i32 0, i32 29
  store i32 0, ptr %28, align 8, !tbaa !75
  %29 = getelementptr inbounds nuw %"class.icu_77::RegexMatcher", ptr %5, i32 0, i32 30
  store i32 0, ptr %29, align 4, !tbaa !76
  %30 = getelementptr inbounds nuw %"class.icu_77::RegexMatcher", ptr %5, i32 0, i32 31
  store i32 0, ptr %30, align 8, !tbaa !77
  %31 = getelementptr inbounds nuw %"class.icu_77::RegexMatcher", ptr %5, i32 0, i32 32
  store i32 8000000, ptr %31, align 4, !tbaa !78
  %32 = getelementptr inbounds nuw %"class.icu_77::RegexMatcher", ptr %5, i32 0, i32 33
  store ptr null, ptr %32, align 8, !tbaa !79
  %33 = getelementptr inbounds nuw %"class.icu_77::RegexMatcher", ptr %5, i32 0, i32 34
  store ptr null, ptr %33, align 8, !tbaa !80
  %34 = getelementptr inbounds nuw %"class.icu_77::RegexMatcher", ptr %5, i32 0, i32 35
  store ptr null, ptr %34, align 8, !tbaa !81
  %35 = getelementptr inbounds nuw %"class.icu_77::RegexMatcher", ptr %5, i32 0, i32 36
  store ptr null, ptr %35, align 8, !tbaa !82
  %36 = getelementptr inbounds nuw %"class.icu_77::RegexMatcher", ptr %5, i32 0, i32 38
  store i8 0, ptr %36, align 1, !tbaa !83
  %37 = load ptr, ptr %4, align 8, !tbaa !22
  %38 = load i32, ptr %37, align 4, !tbaa !15
  %39 = getelementptr inbounds nuw %"class.icu_77::RegexMatcher", ptr %5, i32 0, i32 39
  store i32 %38, ptr %39, align 4, !tbaa !29
  %40 = getelementptr inbounds nuw %"class.icu_77::RegexMatcher", ptr %5, i32 0, i32 28
  %41 = getelementptr inbounds [8 x i64], ptr %40, i64 0, i64 0
  %42 = getelementptr inbounds nuw %"class.icu_77::RegexMatcher", ptr %5, i32 0, i32 27
  store ptr %41, ptr %42, align 8, !tbaa !84
  %43 = getelementptr inbounds nuw %"class.icu_77::RegexMatcher", ptr %5, i32 0, i32 40
  store ptr null, ptr %43, align 8, !tbaa !85
  %44 = getelementptr inbounds nuw %"class.icu_77::RegexMatcher", ptr %5, i32 0, i32 41
  store ptr null, ptr %44, align 8, !tbaa !86
  %45 = getelementptr inbounds nuw %"class.icu_77::RegexMatcher", ptr %5, i32 0, i32 25
  store ptr null, ptr %45, align 8, !tbaa !73
  %46 = getelementptr inbounds nuw %"class.icu_77::RegexMatcher", ptr %5, i32 0, i32 4
  store ptr null, ptr %46, align 8, !tbaa !87
  %47 = getelementptr inbounds nuw %"class.icu_77::RegexMatcher", ptr %5, i32 0, i32 5
  store ptr null, ptr %47, align 8, !tbaa !88
  %48 = getelementptr inbounds nuw %"class.icu_77::RegexMatcher", ptr %5, i32 0, i32 3
  store ptr null, ptr %48, align 8, !tbaa !89
  %49 = getelementptr inbounds nuw %"class.icu_77::RegexMatcher", ptr %5, i32 0, i32 6
  store i64 0, ptr %49, align 8, !tbaa !90
  %50 = getelementptr inbounds nuw %"class.icu_77::RegexMatcher", ptr %5, i32 0, i32 37
  store i8 0, ptr %50, align 8, !tbaa !91
  ret void
}

; Function Attrs: inlinehint mustprogress nounwind uwtable
define linkonce_odr void @_ZN6icu_777UObjectC2Ev(ptr noundef nonnull align 8 dereferenceable(8) %0) unnamed_addr #2 comdat align 2 {
  %2 = alloca ptr, align 8
  store ptr %0, ptr %2, align 8, !tbaa !52
  %3 = load ptr, ptr %2, align 8
  store ptr getelementptr inbounds inrange(-16, 24) ({ [5 x ptr] }, ptr @_ZTVN6icu_777UObjectE, i32 0, i32 0, i32 2), ptr %3, align 8, !tbaa !27
  ret void
}

; Function Attrs: mustprogress uwtable
define void @_ZN6icu_7712RegexMatcherC2EP5UTextS2_jR10UErrorCode(ptr noundef nonnull align 8 dereferenceable(336) %0, ptr noundef %1, ptr noundef %2, i32 noundef %3, ptr noundef nonnull align 4 dereferenceable(4) %4) unnamed_addr #1 align 2 personality ptr @__gxx_personality_v0 {
  %6 = alloca ptr, align 8
  %7 = alloca ptr, align 8
  %8 = alloca ptr, align 8
  %9 = alloca i32, align 4
  %10 = alloca ptr, align 8
  %11 = alloca ptr, align 8
  %12 = alloca i32, align 4
  %13 = alloca %struct.UParseError, align 4
  %14 = alloca i32, align 4
  store ptr %0, ptr %6, align 8, !tbaa !23
  store ptr %1, ptr %7, align 8, !tbaa !92
  store ptr %2, ptr %8, align 8, !tbaa !92
  store i32 %3, ptr %9, align 4, !tbaa !14
  store ptr %4, ptr %10, align 8, !tbaa !22
  %15 = load ptr, ptr %6, align 8
  call void @_ZN6icu_777UObjectC2Ev(ptr noundef nonnull align 8 dereferenceable(8) %15) #11
  store ptr getelementptr inbounds inrange(-16, 496) ({ [64 x ptr] }, ptr @_ZTVN6icu_7712RegexMatcherE, i32 0, i32 0, i32 2), ptr %15, align 8, !tbaa !27
  %16 = load ptr, ptr %10, align 8, !tbaa !22
  invoke void @_ZN6icu_7712RegexMatcher4initER10UErrorCode(ptr noundef nonnull align 8 dereferenceable(336) %15, ptr noundef nonnull align 4 dereferenceable(4) %16)
          to label %17 unwind label %24

17:                                               ; preds = %5
  %18 = load ptr, ptr %10, align 8, !tbaa !22
  %19 = load i32, ptr %18, align 4, !tbaa !15
  %20 = invoke noundef signext i8 @_ZL9U_FAILURE10UErrorCode(i32 noundef %19)
          to label %21 unwind label %24

21:                                               ; preds = %17
  %22 = icmp ne i8 %20, 0
  br i1 %22, label %23, label %28

23:                                               ; preds = %21
  br label %54

24:                                               ; preds = %17, %5
  %25 = landingpad { ptr, i32 }
          cleanup
  %26 = extractvalue { ptr, i32 } %25, 0
  store ptr %26, ptr %11, align 8
  %27 = extractvalue { ptr, i32 } %25, 1
  store i32 %27, ptr %12, align 4
  br label %55

28:                                               ; preds = %21
  call void @llvm.lifetime.start.p0(i64 72, ptr %13) #11
  %29 = load ptr, ptr %7, align 8, !tbaa !92
  %30 = load i32, ptr %9, align 4, !tbaa !14
  %31 = load ptr, ptr %10, align 8, !tbaa !22
  %32 = invoke noundef ptr @_ZN6icu_7712RegexPattern7compileEP5UTextjR11UParseErrorR10UErrorCode(ptr noundef %29, i32 noundef %30, ptr noundef nonnull align 4 dereferenceable(72) %13, ptr noundef nonnull align 4 dereferenceable(4) %31)
          to label %33 unwind label %41

33:                                               ; preds = %28
  %34 = getelementptr inbounds nuw %"class.icu_77::RegexMatcher", ptr %15, i32 0, i32 2
  store ptr %32, ptr %34, align 8, !tbaa !54
  %35 = load ptr, ptr %10, align 8, !tbaa !22
  %36 = load i32, ptr %35, align 4, !tbaa !15
  %37 = invoke noundef signext i8 @_ZL9U_FAILURE10UErrorCode(i32 noundef %36)
          to label %38 unwind label %41

38:                                               ; preds = %33
  %39 = icmp ne i8 %37, 0
  br i1 %39, label %40, label %45

40:                                               ; preds = %38
  store i32 1, ptr %14, align 4
  br label %52

41:                                               ; preds = %45, %33, %28
  %42 = landingpad { ptr, i32 }
          cleanup
  %43 = extractvalue { ptr, i32 } %42, 0
  store ptr %43, ptr %11, align 8
  %44 = extractvalue { ptr, i32 } %42, 1
  store i32 %44, ptr %12, align 4
  call void @llvm.lifetime.end.p0(i64 72, ptr %13) #11
  br label %55

45:                                               ; preds = %38
  %46 = getelementptr inbounds nuw %"class.icu_77::RegexMatcher", ptr %15, i32 0, i32 2
  %47 = load ptr, ptr %46, align 8, !tbaa !54
  %48 = getelementptr inbounds nuw %"class.icu_77::RegexMatcher", ptr %15, i32 0, i32 1
  store ptr %47, ptr %48, align 8, !tbaa !38
  %49 = load ptr, ptr %8, align 8, !tbaa !92
  %50 = load ptr, ptr %10, align 8, !tbaa !22
  invoke void @_ZN6icu_7712RegexMatcher5init2EP5UTextR10UErrorCode(ptr noundef nonnull align 8 dereferenceable(336) %15, ptr noundef %49, ptr noundef nonnull align 4 dereferenceable(4) %50)
          to label %51 unwind label %41

51:                                               ; preds = %45
  store i32 0, ptr %14, align 4
  br label %52

52:                                               ; preds = %51, %40
  call void @llvm.lifetime.end.p0(i64 72, ptr %13) #11
  %53 = load i32, ptr %14, align 4
  switch i32 %53, label %61 [
    i32 0, label %54
    i32 1, label %54
  ]

54:                                               ; preds = %23, %52, %52
  ret void

55:                                               ; preds = %41, %24
  call void @_ZN6icu_777UObjectD2Ev(ptr noundef nonnull align 8 dereferenceable(8) %15) #11
  br label %56

56:                                               ; preds = %55
  %57 = load ptr, ptr %11, align 8
  %58 = load i32, ptr %12, align 4
  %59 = insertvalue { ptr, i32 } poison, ptr %57, 0
  %60 = insertvalue { ptr, i32 } %59, i32 %58, 1
  resume { ptr, i32 } %60

61:                                               ; preds = %52
  unreachable
}