; Function Attrs: mustprogress uwtable
define void @_ZN6icu_7712RegexMatcherC2EP5UTextS2_jR10UErrorCode(ptr noundef nonnull align 8 dereferenceable(336) initializes((0, 24), (56, 60), (64, 131), (136, 170), (176, 192), (264, 312), (313, 314), (316, 320)) %0, ptr noundef %1, ptr noundef %2, i32 noundef %3, ptr noundef nonnull align 4 dereferenceable(4) %4) unnamed_addr #1 align 2 personality ptr @__gxx_personality_v0 {
  %6 = alloca %struct.UParseError, align 4
  store ptr getelementptr inbounds nuw inrange(-16, 496) (i8, ptr @_ZTVN6icu_7712RegexMatcherE, i64 16), ptr %0, align 8, !tbaa !15
  %7 = getelementptr inbounds nuw i8, ptr %0, i64 8
  %8 = getelementptr inbounds nuw i8, ptr %0, i64 56
  store i32 0, ptr %8, align 8, !tbaa !17
  %9 = getelementptr inbounds nuw i8, ptr %0, i64 64
  %10 = getelementptr inbounds nuw i8, ptr %0, i64 129
  tail call void @llvm.memset.p0.i64(ptr noundef nonnull align 8 dereferenceable(16) %7, i8 0, i64 16, i1 false)
  tail call void @llvm.memset.p0.i64(ptr noundef nonnull align 8 dereferenceable(65) %9, i8 0, i64 65, i1 false)
  store i8 1, ptr %10, align 1, !tbaa !28
  %11 = getelementptr inbounds nuw i8, ptr %0, i64 130
  store i8 0, ptr %11, align 2, !tbaa !29
  %12 = getelementptr inbounds nuw i8, ptr %0, i64 136
  %13 = getelementptr inbounds nuw i8, ptr %0, i64 152
  tail call void @llvm.memset.p0.i64(ptr noundef nonnull align 8 dereferenceable(16) %12, i8 0, i64 16, i1 false)
  store i64 -1, ptr %13, align 8, !tbaa !30
  %14 = getelementptr inbounds nuw i8, ptr %0, i64 160
  store i64 0, ptr %14, align 8, !tbaa !31
  %15 = getelementptr inbounds nuw i8, ptr %0, i64 168
  store i8 0, ptr %15, align 8, !tbaa !32
  %16 = getelementptr inbounds nuw i8, ptr %0, i64 169
  store i8 0, ptr %16, align 1, !tbaa !33
  %17 = getelementptr inbounds nuw i8, ptr %0, i64 176
  %18 = getelementptr inbounds nuw i8, ptr %0, i64 264
  store i32 0, ptr %18, align 8, !tbaa !34
  %19 = getelementptr inbounds nuw i8, ptr %0, i64 268
  store i32 0, ptr %19, align 4, !tbaa !35
  %20 = getelementptr inbounds nuw i8, ptr %0, i64 272
  store i32 0, ptr %20, align 8, !tbaa !36
  %21 = getelementptr inbounds nuw i8, ptr %0, i64 276
  tail call void @llvm.memset.p0.i64(ptr noundef nonnull align 8 dereferenceable(16) %17, i8 0, i64 16, i1 false)
  store i32 8000000, ptr %21, align 4, !tbaa !37
  %22 = getelementptr inbounds nuw i8, ptr %0, i64 280
  %23 = getelementptr inbounds nuw i8, ptr %0, i64 313
  store i8 0, ptr %23, align 1, !tbaa !38
  tail call void @llvm.memset.p0.i64(ptr noundef nonnull align 8 dereferenceable(32) %22, i8 0, i64 32, i1 false)
  %24 = load i32, ptr %4, align 4, !tbaa !13
  %25 = getelementptr inbounds nuw i8, ptr %0, i64 316
  store i32 %24, ptr %25, align 4, !tbaa !39
  %26 = getelementptr inbounds nuw i8, ptr %0, i64 200
  %27 = getelementptr inbounds nuw i8, ptr %0, i64 192
  store ptr %26, ptr %27, align 8, !tbaa !40
  %28 = getelementptr inbounds nuw i8, ptr %0, i64 320
  %29 = getelementptr inbounds nuw i8, ptr %0, i64 24
  %30 = getelementptr inbounds nuw i8, ptr %0, i64 312
  store i8 0, ptr %30, align 8, !tbaa !41
  tail call void @llvm.memset.p0.i64(ptr noundef nonnull align 8 dereferenceable(32) %29, i8 0, i64 32, i1 false)
  tail call void @llvm.memset.p0.i64(ptr noundef nonnull align 8 dereferenceable(16) %28, i8 0, i64 16, i1 false)
  %31 = load i32, ptr %4, align 4, !tbaa !13
  %32 = icmp slt i32 %31, 1
  br i1 %32, label %33, label %43

33:                                               ; preds = %5
  call void @llvm.lifetime.start.p0(i64 72, ptr nonnull %6) #21
  %34 = invoke noundef ptr @_ZN6icu_7712RegexPattern7compileEP5UTextjR11UParseErrorR10UErrorCode(ptr noundef %1, i32 noundef %3, ptr noundef nonnull align 4 dereferenceable(72) %6, ptr noundef nonnull align 4 dereferenceable(4) %4)
          to label %35 unwind label %39

35:                                               ; preds = %33
  %36 = getelementptr inbounds nuw i8, ptr %0, i64 16
  store ptr %34, ptr %36, align 8, !tbaa !75
  %37 = load i32, ptr %4, align 4, !tbaa !13
  %38 = icmp slt i32 %37, 1
  br i1 %38, label %41, label %42

39:                                               ; preds = %41, %33
  %40 = landingpad { ptr, i32 }
          cleanup
  call void @llvm.lifetime.end.p0(i64 72, ptr nonnull %6) #21
  call void @_ZN6icu_777UObjectD2Ev(ptr noundef nonnull align 8 dereferenceable(8) %0) #21
  resume { ptr, i32 } %40

41:                                               ; preds = %35
  store ptr %34, ptr %7, align 8, !tbaa !42
  invoke void @_ZN6icu_7712RegexMatcher5init2EP5UTextR10UErrorCode(ptr noundef nonnull align 8 dereferenceable(336) %0, ptr noundef %2, ptr noundef nonnull align 4 dereferenceable(4) %4)
          to label %42 unwind label %39

42:                                               ; preds = %41, %35
  call void @llvm.lifetime.end.p0(i64 72, ptr nonnull %6) #21
  br label %43

43:                                               ; preds = %5, %42
  ret void
}